
Discarded input sections

 .eh_frame      0x0000000000000000       0x78 calc.o
 .eh_frame      0x0000000000000000       0x38 /var/folders/pr/dqyg2df11l5gpmmzgpnjwxtw0000gn/T//cc9VNCet.o
 .eh_frame      0x0000000000000000       0x5c /var/folders/pr/dqyg2df11l5gpmmzgpnjwxtw0000gn/T//cccSuTL3.o
 .eh_frame      0x0000000000000000       0x58 /var/folders/pr/dqyg2df11l5gpmmzgpnjwxtw0000gn/T//ccQY9lHe.o
 .eh_frame      0x0000000000000000       0x38 /var/folders/pr/dqyg2df11l5gpmmzgpnjwxtw0000gn/T//cc3URXLa.o
 .eh_frame      0x0000000000000000       0x38 /var/folders/pr/dqyg2df11l5gpmmzgpnjwxtw0000gn/T//cc9ZbVX8.o
 .eh_frame      0x0000000000000000       0x98 /var/folders/pr/dqyg2df11l5gpmmzgpnjwxtw0000gn/T//cc6dR50o.o
 .eh_frame      0x0000000000000000       0x38 /var/folders/pr/dqyg2df11l5gpmmzgpnjwxtw0000gn/T//ccAzOkOu.o
 .eh_frame      0x0000000000000000       0x38 /var/folders/pr/dqyg2df11l5gpmmzgpnjwxtw0000gn/T//ccbGJ9pn.o
 .eh_frame      0x0000000000000000       0x38 /var/folders/pr/dqyg2df11l5gpmmzgpnjwxtw0000gn/T//ccaluJZo.o
 .eh_frame      0x0000000000000000      0x264 /var/folders/pr/dqyg2df11l5gpmmzgpnjwxtw0000gn/T//ccSNxFEY.o

Memory Configuration

Name             Origin             Length             Attributes
*default*        0x0000000000000000 0xffffffffffffffff

Linker script and memory map

LOAD calc.o
LOAD api_link.o
LOAD alloca.o
LOAD bmp.o
LOAD /var/folders/pr/dqyg2df11l5gpmmzgpnjwxtw0000gn/T//cc9VNCet.o
LOAD /var/folders/pr/dqyg2df11l5gpmmzgpnjwxtw0000gn/T//cccSuTL3.o
LOAD /var/folders/pr/dqyg2df11l5gpmmzgpnjwxtw0000gn/T//ccQY9lHe.o
LOAD /var/folders/pr/dqyg2df11l5gpmmzgpnjwxtw0000gn/T//cc3URXLa.o
LOAD /var/folders/pr/dqyg2df11l5gpmmzgpnjwxtw0000gn/T//cc9ZbVX8.o
LOAD /var/folders/pr/dqyg2df11l5gpmmzgpnjwxtw0000gn/T//cc6dR50o.o
LOAD /var/folders/pr/dqyg2df11l5gpmmzgpnjwxtw0000gn/T//ccAzOkOu.o
LOAD /var/folders/pr/dqyg2df11l5gpmmzgpnjwxtw0000gn/T//ccbGJ9pn.o
LOAD /var/folders/pr/dqyg2df11l5gpmmzgpnjwxtw0000gn/T//ccaluJZo.o
LOAD /var/folders/pr/dqyg2df11l5gpmmzgpnjwxtw0000gn/T//ccSNxFEY.o

.head           0x0000000000000000       0x24
                0x0000000000000000        0x4 LONG 0x40000
                0x0000000000000004        0x4 LONG 0x69726148
                0x0000000000000008        0x4 LONG 0x0
                0x000000000000000c        0x4 LONG 0x5000
                0x0000000000000010        0x4 LONG 0x1d SIZEOF (.data)
                0x0000000000000014        0x4 LONG 0x2aef LOADADDR (.data)
                0x0000000000000018        0x4 LONG 0xe9000000
                0x000000000000001c        0x4 LONG 0x10 (HariMain - 0x20)
                0x0000000000000020        0x4 LONG 0x6000

.text           0x0000000000000030     0x2abf
 *(.text)
 .text          0x0000000000000030      0x5c9 calc.o
                0x0000000000000030                HariMain
                0x00000000000000bc                skip_space
                0x00000000000000d2                calc
 *fill*         0x00000000000005f9        0x7 
 .text          0x0000000000000600      0x21b api_link.o
                0x0000000000000600                api_putchar
                0x000000000000060c                api_putstr
                0x000000000000061a                api_end
                0x0000000000000622                api_gen_window
                0x0000000000000644                api_putstr_window
                0x000000000000066c                api_boxfill_window
                0x0000000000000694                api_init_memman
                0x00000000000006b5                api_malloc
                0x00000000000006ca                api_mfree
                0x00000000000006e3                api_point_window
                0x0000000000000701                api_refresh_window
                0x0000000000000723                api_drawline_window
                0x000000000000074b                api_close_window
                0x0000000000000759                api_keyinput
                0x0000000000000765                api_alloc_timer
                0x000000000000076d                api_init_timer
                0x000000000000077f                api_set_timer
                0x0000000000000791                api_free_timer
                0x000000000000079f                api_beep
                0x00000000000007ab                api_fopen
                0x00000000000007b9                api_fclose
                0x00000000000007c5                api_fseek
                0x00000000000007db                api_fsize
                0x00000000000007eb                api_fread
                0x0000000000000801                api_get_command
                0x0000000000000813                api_check_langmode
 *fill*         0x000000000000081b        0x5 
 .text          0x0000000000000820        0x9 alloca.o
                0x0000000000000820                __alloca
 .text          0x0000000000000829      0x388 bmp.o
                0x0000000000000829                info_BMP
                0x00000000000008eb                decode0_BMP
 .text          0x0000000000000bb1       0xa2 /var/folders/pr/dqyg2df11l5gpmmzgpnjwxtw0000gn/T//cc9VNCet.o
                0x0000000000000bb1                sprintf
 .text          0x0000000000000c53      0x13f /var/folders/pr/dqyg2df11l5gpmmzgpnjwxtw0000gn/T//cccSuTL3.o
                0x0000000000000c53                dec2asc
                0x0000000000000d0b                hex2asc
 .text          0x0000000000000d92       0x2a /var/folders/pr/dqyg2df11l5gpmmzgpnjwxtw0000gn/T//ccQY9lHe.o
                0x0000000000000d92                min
                0x0000000000000da7                max
 .text          0x0000000000000dbc      0x10e /var/folders/pr/dqyg2df11l5gpmmzgpnjwxtw0000gn/T//cc3URXLa.o
                0x0000000000000dbc                printf
 .text          0x0000000000000eca       0x1f /var/folders/pr/dqyg2df11l5gpmmzgpnjwxtw0000gn/T//cc9ZbVX8.o
                0x0000000000000eca                putchar
 .text          0x0000000000000ee9      0x249 /var/folders/pr/dqyg2df11l5gpmmzgpnjwxtw0000gn/T//cc6dR50o.o
                0x0000000000000ee9                strcmp
                0x0000000000000f85                strncmp
                0x0000000000001025                strlen
                0x000000000000104b                strtol
 .text          0x0000000000001132       0x31 /var/folders/pr/dqyg2df11l5gpmmzgpnjwxtw0000gn/T//ccAzOkOu.o
                0x0000000000001132                malloc
 .text          0x0000000000001163       0x33 /var/folders/pr/dqyg2df11l5gpmmzgpnjwxtw0000gn/T//ccbGJ9pn.o
                0x0000000000001163                mfree
 .text          0x0000000000001196        0xe /var/folders/pr/dqyg2df11l5gpmmzgpnjwxtw0000gn/T//ccaluJZo.o
                0x0000000000001196                exit
 .text          0x00000000000011a4     0x194b /var/folders/pr/dqyg2df11l5gpmmzgpnjwxtw0000gn/T//ccSNxFEY.o
                0x00000000000011a4                info_JPEG
                0x0000000000001232                decode0_JPEG
                0x00000000000012bd                get_bits
                0x00000000000013c6                jpeg_sof
                0x00000000000015d8                jpeg_dqt
                0x000000000000178c                jpeg_dht
                0x0000000000001a40                jpeg_init
                0x0000000000001d8d                jpeg_decode_init
                0x0000000000001ebf                jpeg_huff_decode
                0x0000000000001f9b                jpeg_idct_init
                0x00000000000021a7                jpeg_idct
                0x000000000000228c                jpeg_get_value
                0x00000000000022f5                jpeg_decode_huff
                0x00000000000024c1                jpeg_mcu_bitblt
                0x0000000000002561                jpeg_decode_mcu
                0x000000000000269b                jpeg_decode_yuv
                0x00000000000028fc                jpeg_decode

.data           0x0000000000005000       0x1d load address 0x0000000000002aef
 *(.data)
 .data          0x0000000000005000        0x0 calc.o
 .data          0x0000000000005000        0x0 /var/folders/pr/dqyg2df11l5gpmmzgpnjwxtw0000gn/T//cc9VNCet.o
 .data          0x0000000000005000        0x0 /var/folders/pr/dqyg2df11l5gpmmzgpnjwxtw0000gn/T//cccSuTL3.o
 .data          0x0000000000005000        0x0 /var/folders/pr/dqyg2df11l5gpmmzgpnjwxtw0000gn/T//ccQY9lHe.o
 .data          0x0000000000005000        0x0 /var/folders/pr/dqyg2df11l5gpmmzgpnjwxtw0000gn/T//cc3URXLa.o
 .data          0x0000000000005000        0x0 /var/folders/pr/dqyg2df11l5gpmmzgpnjwxtw0000gn/T//cc9ZbVX8.o
 .data          0x0000000000005000        0x0 /var/folders/pr/dqyg2df11l5gpmmzgpnjwxtw0000gn/T//cc6dR50o.o
 .data          0x0000000000005000        0x0 /var/folders/pr/dqyg2df11l5gpmmzgpnjwxtw0000gn/T//ccAzOkOu.o
 .data          0x0000000000005000        0x0 /var/folders/pr/dqyg2df11l5gpmmzgpnjwxtw0000gn/T//ccbGJ9pn.o
 .data          0x0000000000005000        0x0 /var/folders/pr/dqyg2df11l5gpmmzgpnjwxtw0000gn/T//ccaluJZo.o
 .data          0x0000000000005000        0x0 /var/folders/pr/dqyg2df11l5gpmmzgpnjwxtw0000gn/T//ccSNxFEY.o
 *(.rodata*)
 .rodata        0x0000000000005000       0x1d calc.o
 *(.bss)
 .bss           0x000000000000501d        0x0 calc.o
 .bss           0x000000000000501d        0x0 /var/folders/pr/dqyg2df11l5gpmmzgpnjwxtw0000gn/T//cc9VNCet.o
 .bss           0x000000000000501d        0x0 /var/folders/pr/dqyg2df11l5gpmmzgpnjwxtw0000gn/T//cccSuTL3.o
 .bss           0x000000000000501d        0x0 /var/folders/pr/dqyg2df11l5gpmmzgpnjwxtw0000gn/T//ccQY9lHe.o
 .bss           0x000000000000501d        0x0 /var/folders/pr/dqyg2df11l5gpmmzgpnjwxtw0000gn/T//cc3URXLa.o
 .bss           0x000000000000501d        0x0 /var/folders/pr/dqyg2df11l5gpmmzgpnjwxtw0000gn/T//cc9ZbVX8.o
 .bss           0x000000000000501d        0x0 /var/folders/pr/dqyg2df11l5gpmmzgpnjwxtw0000gn/T//cc6dR50o.o
 .bss           0x000000000000501d        0x0 /var/folders/pr/dqyg2df11l5gpmmzgpnjwxtw0000gn/T//ccAzOkOu.o
 .bss           0x000000000000501d        0x0 /var/folders/pr/dqyg2df11l5gpmmzgpnjwxtw0000gn/T//ccbGJ9pn.o
 .bss           0x000000000000501d        0x0 /var/folders/pr/dqyg2df11l5gpmmzgpnjwxtw0000gn/T//ccaluJZo.o
 .bss           0x000000000000501d        0x0 /var/folders/pr/dqyg2df11l5gpmmzgpnjwxtw0000gn/T//ccSNxFEY.o

/DISCARD/
 *(.eh_frame)
OUTPUT(calc.hrb binary)

.comment        0x0000000000000000       0xc6
 .comment       0x0000000000000000       0x12 calc.o
 .comment       0x0000000000000012       0x12 /var/folders/pr/dqyg2df11l5gpmmzgpnjwxtw0000gn/T//cc9VNCet.o
 .comment       0x0000000000000024       0x12 /var/folders/pr/dqyg2df11l5gpmmzgpnjwxtw0000gn/T//cccSuTL3.o
 .comment       0x0000000000000036       0x12 /var/folders/pr/dqyg2df11l5gpmmzgpnjwxtw0000gn/T//ccQY9lHe.o
 .comment       0x0000000000000048       0x12 /var/folders/pr/dqyg2df11l5gpmmzgpnjwxtw0000gn/T//cc3URXLa.o
 .comment       0x000000000000005a       0x12 /var/folders/pr/dqyg2df11l5gpmmzgpnjwxtw0000gn/T//cc9ZbVX8.o
 .comment       0x000000000000006c       0x12 /var/folders/pr/dqyg2df11l5gpmmzgpnjwxtw0000gn/T//cc6dR50o.o
 .comment       0x000000000000007e       0x12 /var/folders/pr/dqyg2df11l5gpmmzgpnjwxtw0000gn/T//ccAzOkOu.o
 .comment       0x0000000000000090       0x12 /var/folders/pr/dqyg2df11l5gpmmzgpnjwxtw0000gn/T//ccbGJ9pn.o
 .comment       0x00000000000000a2       0x12 /var/folders/pr/dqyg2df11l5gpmmzgpnjwxtw0000gn/T//ccaluJZo.o
 .comment       0x00000000000000b4       0x12 /var/folders/pr/dqyg2df11l5gpmmzgpnjwxtw0000gn/T//ccSNxFEY.o
